	.file	"5.c"
	.text
	.globl	get_string
	.type	get_string, @function
get_string:
.LFB5:
	.cfi_startproc
	pushq	%rbp
	.cfi_def_cfa_offset 16
	.cfi_offset 6, -16
	movq	%rsp, %rbp
	.cfi_def_cfa_register 6
	subq	$32, %rsp
	movq	%rdi, -24(%rbp)		#go to func int *len
	movq	%rsi, -32(%rbp)		#go to func int *test
	movq	-24(%rbp), %rax
	movl	$0, (%rax)		#*len = 0
	movq	-32(%rbp), %rax
	movl	$0, (%rax)		#*test = 0
	movl	$1, -12(%rbp)
	movl	$1, %edi		#capacit = 1
	call	malloc@PLT
	movq	%rax, -8(%rbp)		#char *s
	call	getchar@PLT
	movb	%al, -13(%rbp)		#char c 
	jmp	.L2
.L4:
	movq	-24(%rbp), %rax
	movl	(%rax), %eax
	leal	1(%rax), %ecx
	movq	-24(%rbp), %rdx
	movl	%ecx, (%rdx)
	movslq	%eax, %rdx
	movq	-8(%rbp), %rax
	addq	%rax, %rdx
	movzbl	-13(%rbp), %eax
	movb	%al, (%rdx)
	movq	-24(%rbp), %rax
	movl	(%rax), %eax
	cmpl	%eax, -12(%rbp)
	jg	.L3
	sall	-12(%rbp)
	movl	-12(%rbp), %eax
	movslq	%eax, %rdx
	movq	-8(%rbp), %rax
	movq	%rdx, %rsi
	movq	%rax, %rdi
	call	realloc@PLT
	movq	%rax, -8(%rbp)
.L3:
	call	getchar@PLT
	movb	%al, -13(%rbp)
.L2:
	cmpb	$10, -13(%rbp)
	jne	.L4
	movq	-24(%rbp), %rax
	movl	(%rax), %eax
	movslq	%eax, %rdx
	movq	-8(%rbp), %rax
	addq	%rdx, %rax
	movb	$0, (%rax)
	movq	-8(%rbp), %rax			#return s
	leave
	.cfi_def_cfa 7, 8
	ret
	.cfi_endproc
.LFE5:
	.size	get_string, .-get_string
	.globl	change
	.type	change, @function
change:
.LFB6:
	.cfi_startproc
	pushq	%rbp
	.cfi_def_cfa_offset 16
	.cfi_offset 6, -16
	movq	%rsp, %rbp
	.cfi_def_cfa_register 6
	movq	%rdi, -24(%rbp)		#go to func char *s
	movl	%esi, -28(%rbp)		#go to func int len
	movl	$0, -4(%rbp)		#int i = 0
	jmp	.L7
.L11:
	movl	-4(%rbp), %eax
	movslq	%eax, %rdx
	movq	-24(%rbp), %rax
	addq	%rdx, %rax
	movzbl	(%rax), %eax
	cmpb	$64, %al
	jle	.L8
	movl	-4(%rbp), %eax
	movslq	%eax, %rdx
	movq	-24(%rbp), %rax
	addq	%rdx, %rax
	movzbl	(%rax), %eax
	cmpb	$90, %al
	jg	.L8
	movl	-4(%rbp), %eax
	movslq	%eax, %rdx
	movq	-24(%rbp), %rax
	addq	%rdx, %rax
	movzbl	(%rax), %eax
	leal	32(%rax), %ecx
	movl	-4(%rbp), %eax
	movslq	%eax, %rdx
	movq	-24(%rbp), %rax
	addq	%rdx, %rax
	movl	%ecx, %edx
	movb	%dl, (%rax)
	jmp	.L9
.L8:
	movl	-4(%rbp), %eax
	movslq	%eax, %rdx
	movq	-24(%rbp), %rax
	addq	%rdx, %rax
	movzbl	(%rax), %eax
	cmpb	$96, %al
	jle	.L10
	movl	-4(%rbp), %eax
	movslq	%eax, %rdx
	movq	-24(%rbp), %rax
	addq	%rdx, %rax
	movzbl	(%rax), %eax
	cmpb	$122, %al
	jg	.L10
	movl	-4(%rbp), %eax
	movslq	%eax, %rdx
	movq	-24(%rbp), %rax
	addq	%rdx, %rax
	movzbl	(%rax), %eax
	leal	-32(%rax), %ecx
	movl	-4(%rbp), %eax
	movslq	%eax, %rdx
	movq	-24(%rbp), %rax
	addq	%rdx, %rax
	movl	%ecx, %edx
	movb	%dl, (%rax)
	jmp	.L9
.L10:
	movl	-4(%rbp), %eax
	movslq	%eax, %rdx
	movq	-24(%rbp), %rax
	addq	%rdx, %rax
	movl	-4(%rbp), %edx
	movslq	%edx, %rcx
	movq	-24(%rbp), %rdx
	addq	%rcx, %rdx
	movzbl	(%rax), %eax
	movb	%al, (%rdx)
.L9:
	addl	$1, -4(%rbp)
.L7:
	movl	-4(%rbp), %eax		
	cmpl	-28(%rbp), %eax		#void func
	jl	.L11
	nop
	popq	%rbp
	.cfi_def_cfa 7, 8
	ret
	.cfi_endproc
.LFE6:
	.size	change, .-change
	.section	.rodata
.LC0:
	.string	"%s"
.LC1:
	.string	"incorrect input"
	.text
	.globl	main
	.type	main, @function
main:
.LFB7:
	.cfi_startproc
	pushq	%rbp
	.cfi_def_cfa_offset 16
	.cfi_offset 6, -16
	movq	%rsp, %rbp
	.cfi_def_cfa_register 6
	subq	$32, %rsp
	movq	%fs:40, %rax
	movq	%rax, -8(%rbp)
	xorl	%eax, %eax
	leaq	-20(%rbp), %rdx		#&len to get_string
	leaq	-24(%rbp), %rax		#&test to ger_string
	movq	%rdx, %rsi
	movq	%rax, %rdi
	call	get_string
	movq	%rax, -16(%rbp)		#save result of get_string
	movl	-20(%rbp), %eax
	testl	%eax, %eax
	jne	.L13
	movl	-24(%rbp), %edx		#s to func  change
	movq	-16(%rbp), %rax		#len to func change 
	movl	%edx, %esi
	movq	%rax, %rdi
	call	change
	movq	-16(%rbp), %rax		#void func change
	movq	%rax, %rsi		# s to printf
	leaq	.LC0(%rip), %rdi	#"%s" to pritnf
	movl	$0, %eax
	call	printf@PLT
	movl	$0, %eax
	jmp	.L15
.L13:
	leaq	.LC1(%rip), %rdi	#"incorrect input" to printf
	movl	$0, %eax
	call	printf@PLT
	movl	$0, %eax
.L15:
	movq	-8(%rbp), %rcx
	xorq	%fs:40, %rcx
	je	.L16
	call	__stack_chk_fail@PLT
.L16:
	leave
	.cfi_def_cfa 7, 8
	ret
	.cfi_endproc
.LFE7:
	.size	main, .-main
	.ident	"GCC: (Ubuntu 7.5.0-3ubuntu1~18.04) 7.5.0"
	.section	.note.GNU-stack,"",@progbits
