	.file	"7.c"
	.text
	.globl	get_string
	.type	get_string, @function
get_string:
.LFB5:
	.cfi_startproc
	pushq	%rbp
	.cfi_def_cfa_offset 16
	.cfi_offset 6, -16
	movq	%rsp, %rbp
	.cfi_def_cfa_register 6
	subq	$48, %rsp
	movq	%rdi, -24(%rbp)
	movq	%rsi, -32(%rbp)
	movq	%rdx, -40(%rbp)
	movq	-32(%rbp), %rax
	movl	$0, (%rax)
	movq	-40(%rbp), %rax
	movl	$0, (%rax)
	movl	$1, -12(%rbp)
	movl	$1, %edi
	call	malloc@PLT
	movq	%rax, -8(%rbp)
	movq	-24(%rbp), %rax
	movq	%rax, %rdi
	call	fgetc@PLT
	movb	%al, -13(%rbp)
	jmp	.L2
.L4:
	movq	-32(%rbp), %rax
	movl	(%rax), %eax
	leal	1(%rax), %ecx
	movq	-32(%rbp), %rdx
	movl	%ecx, (%rdx)
	movslq	%eax, %rdx
	movq	-8(%rbp), %rax
	addq	%rax, %rdx
	movzbl	-13(%rbp), %eax
	movb	%al, (%rdx)
	movq	-32(%rbp), %rax
	movl	(%rax), %eax
	cmpl	%eax, -12(%rbp)
	jg	.L3
	sall	-12(%rbp)
	movl	-12(%rbp), %eax
	movslq	%eax, %rdx
	movq	-8(%rbp), %rax
	movq	%rdx, %rsi
	movq	%rax, %rdi
	call	realloc@PLT
	movq	%rax, -8(%rbp)
.L3:
	movq	-24(%rbp), %rax
	movq	%rax, %rdi
	call	fgetc@PLT
	movb	%al, -13(%rbp)
.L2:
	cmpb	$-1, -13(%rbp)
	jne	.L4
	movq	-32(%rbp), %rax
	movl	(%rax), %eax
	movslq	%eax, %rdx
	movq	-8(%rbp), %rax
	addq	%rdx, %rax
	movb	$0, (%rax)
	movq	-8(%rbp), %rax
	leave
	.cfi_def_cfa 7, 8
	ret
	.cfi_endproc
.LFE5:
	.size	get_string, .-get_string
	.section	.rodata
.LC0:
	.string	"%d"
	.text
	.globl	task
	.type	task, @function
task:
.LFB6:
	.cfi_startproc
	pushq	%rbp
	.cfi_def_cfa_offset 16
	.cfi_offset 6, -16
	movq	%rsp, %rbp
	.cfi_def_cfa_register 6
	subq	$48, %rsp
	movq	%rdi, -24(%rbp)
	movq	%rsi, -32(%rbp)
	movl	%edx, -36(%rbp)
	movl	$0, -4(%rbp)
	jmp	.L7
.L11:
	movl	-4(%rbp), %eax
	movslq	%eax, %rdx
	movq	-32(%rbp), %rax
	addq	%rdx, %rax
	movzbl	(%rax), %eax
	cmpb	$66, %al
	je	.L8
	movl	-4(%rbp), %eax
	movslq	%eax, %rdx
	movq	-32(%rbp), %rax
	addq	%rdx, %rax
	movzbl	(%rax), %eax
	cmpb	$67, %al
	je	.L8
	movl	-4(%rbp), %eax
	movslq	%eax, %rdx
	movq	-32(%rbp), %rax
	addq	%rdx, %rax
	movzbl	(%rax), %eax
	cmpb	$68, %al
	je	.L8
	movl	-4(%rbp), %eax
	movslq	%eax, %rdx
	movq	-32(%rbp), %rax
	addq	%rdx, %rax
	movzbl	(%rax), %eax
	cmpb	$70, %al
	je	.L8
	movl	-4(%rbp), %eax
	movslq	%eax, %rdx
	movq	-32(%rbp), %rax
	addq	%rdx, %rax
	movzbl	(%rax), %eax
	cmpb	$71, %al
	je	.L8
	movl	-4(%rbp), %eax
	movslq	%eax, %rdx
	movq	-32(%rbp), %rax
	addq	%rdx, %rax
	movzbl	(%rax), %eax
	cmpb	$72, %al
	je	.L8
	movl	-4(%rbp), %eax
	movslq	%eax, %rdx
	movq	-32(%rbp), %rax
	addq	%rdx, %rax
	movzbl	(%rax), %eax
	cmpb	$74, %al
	je	.L8
	movl	-4(%rbp), %eax
	movslq	%eax, %rdx
	movq	-32(%rbp), %rax
	addq	%rdx, %rax
	movzbl	(%rax), %eax
	cmpb	$75, %al
	je	.L8
	movl	-4(%rbp), %eax
	movslq	%eax, %rdx
	movq	-32(%rbp), %rax
	addq	%rdx, %rax
	movzbl	(%rax), %eax
	cmpb	$76, %al
	je	.L8
	movl	-4(%rbp), %eax
	movslq	%eax, %rdx
	movq	-32(%rbp), %rax
	addq	%rdx, %rax
	movzbl	(%rax), %eax
	cmpb	$77, %al
	je	.L8
	movl	-4(%rbp), %eax
	movslq	%eax, %rdx
	movq	-32(%rbp), %rax
	addq	%rdx, %rax
	movzbl	(%rax), %eax
	cmpb	$78, %al
	je	.L8
	movl	-4(%rbp), %eax
	movslq	%eax, %rdx
	movq	-32(%rbp), %rax
	addq	%rdx, %rax
	movzbl	(%rax), %eax
	cmpb	$80, %al
	je	.L8
	movl	-4(%rbp), %eax
	movslq	%eax, %rdx
	movq	-32(%rbp), %rax
	addq	%rdx, %rax
	movzbl	(%rax), %eax
	cmpb	$82, %al
	je	.L8
	movl	-4(%rbp), %eax
	movslq	%eax, %rdx
	movq	-32(%rbp), %rax
	addq	%rdx, %rax
	movzbl	(%rax), %eax
	cmpb	$83, %al
	je	.L8
	movl	-4(%rbp), %eax
	movslq	%eax, %rdx
	movq	-32(%rbp), %rax
	addq	%rdx, %rax
	movzbl	(%rax), %eax
	cmpb	$84, %al
	je	.L8
	movl	-4(%rbp), %eax
	movslq	%eax, %rdx
	movq	-32(%rbp), %rax
	addq	%rdx, %rax
	movzbl	(%rax), %eax
	cmpb	$86, %al
	je	.L8
	movl	-4(%rbp), %eax
	movslq	%eax, %rdx
	movq	-32(%rbp), %rax
	addq	%rdx, %rax
	movzbl	(%rax), %eax
	cmpb	$87, %al
	je	.L8
	movl	-4(%rbp), %eax
	movslq	%eax, %rdx
	movq	-32(%rbp), %rax
	addq	%rdx, %rax
	movzbl	(%rax), %eax
	cmpb	$88, %al
	je	.L8
	movl	-4(%rbp), %eax
	movslq	%eax, %rdx
	movq	-32(%rbp), %rax
	addq	%rdx, %rax
	movzbl	(%rax), %eax
	cmpb	$90, %al
	je	.L8
	movl	-4(%rbp), %eax
	movslq	%eax, %rdx
	movq	-32(%rbp), %rax
	addq	%rdx, %rax
	movzbl	(%rax), %eax
	cmpb	$98, %al
	je	.L8
	movl	-4(%rbp), %eax
	movslq	%eax, %rdx
	movq	-32(%rbp), %rax
	addq	%rdx, %rax
	movzbl	(%rax), %eax
	cmpb	$99, %al
	je	.L8
	movl	-4(%rbp), %eax
	movslq	%eax, %rdx
	movq	-32(%rbp), %rax
	addq	%rdx, %rax
	movzbl	(%rax), %eax
	cmpb	$100, %al
	je	.L8
	movl	-4(%rbp), %eax
	movslq	%eax, %rdx
	movq	-32(%rbp), %rax
	addq	%rdx, %rax
	movzbl	(%rax), %eax
	cmpb	$102, %al
	je	.L8
	movl	-4(%rbp), %eax
	movslq	%eax, %rdx
	movq	-32(%rbp), %rax
	addq	%rdx, %rax
	movzbl	(%rax), %eax
	cmpb	$103, %al
	je	.L8
	movl	-4(%rbp), %eax
	movslq	%eax, %rdx
	movq	-32(%rbp), %rax
	addq	%rdx, %rax
	movzbl	(%rax), %eax
	cmpb	$104, %al
	je	.L8
	movl	-4(%rbp), %eax
	movslq	%eax, %rdx
	movq	-32(%rbp), %rax
	addq	%rdx, %rax
	movzbl	(%rax), %eax
	cmpb	$106, %al
	je	.L8
	movl	-4(%rbp), %eax
	movslq	%eax, %rdx
	movq	-32(%rbp), %rax
	addq	%rdx, %rax
	movzbl	(%rax), %eax
	cmpb	$107, %al
	je	.L8
	movl	-4(%rbp), %eax
	movslq	%eax, %rdx
	movq	-32(%rbp), %rax
	addq	%rdx, %rax
	movzbl	(%rax), %eax
	cmpb	$108, %al
	je	.L8
	movl	-4(%rbp), %eax
	movslq	%eax, %rdx
	movq	-32(%rbp), %rax
	addq	%rdx, %rax
	movzbl	(%rax), %eax
	cmpb	$109, %al
	je	.L8
	movl	-4(%rbp), %eax
	movslq	%eax, %rdx
	movq	-32(%rbp), %rax
	addq	%rdx, %rax
	movzbl	(%rax), %eax
	cmpb	$110, %al
	je	.L8
	movl	-4(%rbp), %eax
	movslq	%eax, %rdx
	movq	-32(%rbp), %rax
	addq	%rdx, %rax
	movzbl	(%rax), %eax
	cmpb	$112, %al
	je	.L8
	movl	-4(%rbp), %eax
	movslq	%eax, %rdx
	movq	-32(%rbp), %rax
	addq	%rdx, %rax
	movzbl	(%rax), %eax
	cmpb	$114, %al
	je	.L8
	movl	-4(%rbp), %eax
	movslq	%eax, %rdx
	movq	-32(%rbp), %rax
	addq	%rdx, %rax
	movzbl	(%rax), %eax
	cmpb	$115, %al
	je	.L8
	movl	-4(%rbp), %eax
	movslq	%eax, %rdx
	movq	-32(%rbp), %rax
	addq	%rdx, %rax
	movzbl	(%rax), %eax
	cmpb	$116, %al
	je	.L8
	movl	-4(%rbp), %eax
	movslq	%eax, %rdx
	movq	-32(%rbp), %rax
	addq	%rdx, %rax
	movzbl	(%rax), %eax
	cmpb	$118, %al
	je	.L8
	movl	-4(%rbp), %eax
	movslq	%eax, %rdx
	movq	-32(%rbp), %rax
	addq	%rdx, %rax
	movzbl	(%rax), %eax
	cmpb	$119, %al
	je	.L8
	movl	-4(%rbp), %eax
	movslq	%eax, %rdx
	movq	-32(%rbp), %rax
	addq	%rdx, %rax
	movzbl	(%rax), %eax
	cmpb	$120, %al
	je	.L8
	movl	-4(%rbp), %eax
	movslq	%eax, %rdx
	movq	-32(%rbp), %rax
	addq	%rdx, %rax
	movzbl	(%rax), %eax
	cmpb	$122, %al
	jne	.L9
.L8:
	movl	-4(%rbp), %eax
	movslq	%eax, %rdx
	movq	-32(%rbp), %rax
	addq	%rdx, %rax
	movzbl	(%rax), %eax
	movsbl	%al, %edx
	movq	-24(%rbp), %rax
	leaq	.LC0(%rip), %rsi
	movq	%rax, %rdi
	movl	$0, %eax
	call	fprintf@PLT
	jmp	.L10
.L9:
	movl	-4(%rbp), %eax
	movslq	%eax, %rdx
	movq	-32(%rbp), %rax
	addq	%rdx, %rax
	movzbl	(%rax), %eax
	movsbl	%al, %eax
	movq	-24(%rbp), %rdx
	movq	%rdx, %rsi
	movl	%eax, %edi
	call	fputc@PLT
.L10:
	addl	$1, -4(%rbp)
.L7:
	movl	-4(%rbp), %eax
	cmpl	-36(%rbp), %eax
	jl	.L11
	nop
	leave
	.cfi_def_cfa 7, 8
	ret
	.cfi_endproc
.LFE6:
	.size	task, .-task
	.section	.rodata
.LC1:
	.string	"incorrect input"
.LC2:
	.string	"r"
.LC3:
	.string	"w"
.LC4:
	.string	"incorrect file"
	.text
	.globl	main
	.type	main, @function
main:
.LFB7:
	.cfi_startproc
	pushq	%rbp
	.cfi_def_cfa_offset 16
	.cfi_offset 6, -16
	movq	%rsp, %rbp
	.cfi_def_cfa_register 6
	subq	$64, %rsp
	movl	%edi, -52(%rbp)
	movq	%rsi, -64(%rbp)
	movq	%fs:40, %rax
	movq	%rax, -8(%rbp)
	xorl	%eax, %eax
	cmpl	$3, -52(%rbp)
	je	.L13
	leaq	.LC1(%rip), %rdi
	call	puts@PLT
	movl	$0, %eax
	jmp	.L18
.L13:
	movq	-64(%rbp), %rax
	addq	$8, %rax
	movq	(%rax), %rax
	leaq	.LC2(%rip), %rsi
	movq	%rax, %rdi
	call	fopen@PLT
	movq	%rax, -32(%rbp)
	movq	-64(%rbp), %rax
	addq	$16, %rax
	movq	(%rax), %rax
	leaq	.LC3(%rip), %rsi
	movq	%rax, %rdi
	call	fopen@PLT
	movq	%rax, -24(%rbp)
	cmpq	$0, -32(%rbp)
	je	.L15
	cmpq	$0, -24(%rbp)
	jne	.L16
.L15:
	leaq	.LC4(%rip), %rdi
	call	puts@PLT
	movl	$0, %eax
	jmp	.L18
.L16:
	leaq	-36(%rbp), %rdx
	leaq	-40(%rbp), %rcx
	movq	-32(%rbp), %rax
	movq	%rcx, %rsi
	movq	%rax, %rdi
	call	get_string
	movq	%rax, -16(%rbp)
	movl	-36(%rbp), %eax
	testl	%eax, %eax
	jne	.L17
	movl	-40(%rbp), %edx
	movq	-16(%rbp), %rcx
	movq	-24(%rbp), %rax
	movq	%rcx, %rsi
	movq	%rax, %rdi
	call	task
	movq	-16(%rbp), %rax
	movq	%rax, %rdi
	call	free@PLT
	movq	-32(%rbp), %rax
	movq	%rax, %rdi
	call	fclose@PLT
	movq	-24(%rbp), %rax
	movq	%rax, %rdi
	call	fclose@PLT
	movl	$0, %eax
	jmp	.L18
.L17:
	movq	-24(%rbp), %rax
	movq	%rax, %rcx
	movl	$15, %edx
	movl	$1, %esi
	leaq	.LC1(%rip), %rdi
	call	fwrite@PLT
	movq	-16(%rbp), %rax
	movq	%rax, %rdi
	call	free@PLT
	movq	-32(%rbp), %rax
	movq	%rax, %rdi
	call	fclose@PLT
	movq	-24(%rbp), %rax
	movq	%rax, %rdi
	call	fclose@PLT
	movl	$0, %eax
.L18:
	movq	-8(%rbp), %rcx
	xorq	%fs:40, %rcx
	je	.L19
	call	__stack_chk_fail@PLT
.L19:
	leave
	.cfi_def_cfa 7, 8
	ret
	.cfi_endproc
.LFE7:
	.size	main, .-main
	.ident	"GCC: (Ubuntu 7.5.0-3ubuntu1~18.04) 7.5.0"
	.section	.note.GNU-stack,"",@progbits
