	.file	"8.c"
	.text
	.globl	get_string
	.type	get_string, @function
get_string:
.LFB5:
	.cfi_startproc
	pushq	%rbp
	.cfi_def_cfa_offset 16
	.cfi_offset 6, -16
	movq	%rsp, %rbp
	.cfi_def_cfa_register 6
	subq	$48, %rsp
	movq	%rdi, -24(%rbp)
	movq	%rsi, -32(%rbp)
	movq	%rdx, -40(%rbp)
	movq	-32(%rbp), %rax
	movl	$0, (%rax)
	movq	-40(%rbp), %rax
	movl	$0, (%rax)
	movl	$1, -12(%rbp)
	movl	$1, %edi
	call	malloc@PLT
	movq	%rax, -8(%rbp)
	movq	-24(%rbp), %rax
	movq	%rax, %rdi
	call	fgetc@PLT
	movb	%al, -13(%rbp)
	jmp	.L2
.L4:
	movq	-32(%rbp), %rax
	movl	(%rax), %eax
	leal	1(%rax), %ecx
	movq	-32(%rbp), %rdx
	movl	%ecx, (%rdx)
	movslq	%eax, %rdx
	movq	-8(%rbp), %rax
	addq	%rax, %rdx
	movzbl	-13(%rbp), %eax
	movb	%al, (%rdx)
	movq	-32(%rbp), %rax
	movl	(%rax), %eax
	cmpl	%eax, -12(%rbp)
	jg	.L3
	sall	-12(%rbp)
	movl	-12(%rbp), %eax
	movslq	%eax, %rdx
	movq	-8(%rbp), %rax
	movq	%rdx, %rsi
	movq	%rax, %rdi
	call	realloc@PLT
	movq	%rax, -8(%rbp)
.L3:
	movq	-24(%rbp), %rax
	movq	%rax, %rdi
	call	fgetc@PLT
	movb	%al, -13(%rbp)
.L2:
	cmpb	$-1, -13(%rbp)
	jne	.L4
	movq	-32(%rbp), %rax
	movl	(%rax), %eax
	movslq	%eax, %rdx
	movq	-8(%rbp), %rax
	addq	%rdx, %rax
	movb	$0, (%rax)
	movq	-8(%rbp), %rax
	leave
	.cfi_def_cfa 7, 8
	ret
	.cfi_endproc
.LFE5:
	.size	get_string, .-get_string
	.globl	get_string2
	.type	get_string2, @function
get_string2:
.LFB6:
	.cfi_startproc
	pushq	%rbp
	.cfi_def_cfa_offset 16
	.cfi_offset 6, -16
	movq	%rsp, %rbp
	.cfi_def_cfa_register 6
	subq	$32, %rsp
	movq	%rdi, -24(%rbp)
	movq	%rsi, -32(%rbp)
	movq	-24(%rbp), %rax
	movl	$0, (%rax)
	movq	-32(%rbp), %rax
	movl	$0, (%rax)
	movl	$1, -12(%rbp)
	movl	$1, %edi
	call	malloc@PLT
	movq	%rax, -8(%rbp)
	call	getchar@PLT
	movb	%al, -13(%rbp)
	jmp	.L7
.L9:
	movq	-24(%rbp), %rax
	movl	(%rax), %eax
	leal	1(%rax), %ecx
	movq	-24(%rbp), %rdx
	movl	%ecx, (%rdx)
	movslq	%eax, %rdx
	movq	-8(%rbp), %rax
	addq	%rax, %rdx
	movzbl	-13(%rbp), %eax
	movb	%al, (%rdx)
	movq	-24(%rbp), %rax
	movl	(%rax), %eax
	cmpl	%eax, -12(%rbp)
	jg	.L8
	sall	-12(%rbp)
	movl	-12(%rbp), %eax
	movslq	%eax, %rdx
	movq	-8(%rbp), %rax
	movq	%rdx, %rsi
	movq	%rax, %rdi
	call	realloc@PLT
	movq	%rax, -8(%rbp)
.L8:
	call	getchar@PLT
	movb	%al, -13(%rbp)
.L7:
	cmpb	$10, -13(%rbp)
	jne	.L9
	movq	-24(%rbp), %rax
	movl	(%rax), %eax
	movslq	%eax, %rdx
	movq	-8(%rbp), %rax
	addq	%rdx, %rax
	movb	$0, (%rax)
	movq	-8(%rbp), %rax
	leave
	.cfi_def_cfa 7, 8
	ret
	.cfi_endproc
.LFE6:
	.size	get_string2, .-get_string2
	.section	.rodata
.LC0:
	.string	"%d"
	.text
	.globl	task
	.type	task, @function
task:
.LFB7:
	.cfi_startproc
	pushq	%rbp
	.cfi_def_cfa_offset 16
	.cfi_offset 6, -16
	movq	%rsp, %rbp
	.cfi_def_cfa_register 6
	subq	$48, %rsp
	movq	%rdi, -24(%rbp)
	movq	%rsi, -32(%rbp)
	movl	%edx, -36(%rbp)
	movl	$0, -4(%rbp)
	jmp	.L12
.L16:
	movl	-4(%rbp), %eax
	movslq	%eax, %rdx
	movq	-32(%rbp), %rax
	addq	%rdx, %rax
	movzbl	(%rax), %eax
	cmpb	$66, %al
	je	.L13
	movl	-4(%rbp), %eax
	movslq	%eax, %rdx
	movq	-32(%rbp), %rax
	addq	%rdx, %rax
	movzbl	(%rax), %eax
	cmpb	$67, %al
	je	.L13
	movl	-4(%rbp), %eax
	movslq	%eax, %rdx
	movq	-32(%rbp), %rax
	addq	%rdx, %rax
	movzbl	(%rax), %eax
	cmpb	$68, %al
	je	.L13
	movl	-4(%rbp), %eax
	movslq	%eax, %rdx
	movq	-32(%rbp), %rax
	addq	%rdx, %rax
	movzbl	(%rax), %eax
	cmpb	$70, %al
	je	.L13
	movl	-4(%rbp), %eax
	movslq	%eax, %rdx
	movq	-32(%rbp), %rax
	addq	%rdx, %rax
	movzbl	(%rax), %eax
	cmpb	$71, %al
	je	.L13
	movl	-4(%rbp), %eax
	movslq	%eax, %rdx
	movq	-32(%rbp), %rax
	addq	%rdx, %rax
	movzbl	(%rax), %eax
	cmpb	$72, %al
	je	.L13
	movl	-4(%rbp), %eax
	movslq	%eax, %rdx
	movq	-32(%rbp), %rax
	addq	%rdx, %rax
	movzbl	(%rax), %eax
	cmpb	$74, %al
	je	.L13
	movl	-4(%rbp), %eax
	movslq	%eax, %rdx
	movq	-32(%rbp), %rax
	addq	%rdx, %rax
	movzbl	(%rax), %eax
	cmpb	$75, %al
	je	.L13
	movl	-4(%rbp), %eax
	movslq	%eax, %rdx
	movq	-32(%rbp), %rax
	addq	%rdx, %rax
	movzbl	(%rax), %eax
	cmpb	$76, %al
	je	.L13
	movl	-4(%rbp), %eax
	movslq	%eax, %rdx
	movq	-32(%rbp), %rax
	addq	%rdx, %rax
	movzbl	(%rax), %eax
	cmpb	$77, %al
	je	.L13
	movl	-4(%rbp), %eax
	movslq	%eax, %rdx
	movq	-32(%rbp), %rax
	addq	%rdx, %rax
	movzbl	(%rax), %eax
	cmpb	$78, %al
	je	.L13
	movl	-4(%rbp), %eax
	movslq	%eax, %rdx
	movq	-32(%rbp), %rax
	addq	%rdx, %rax
	movzbl	(%rax), %eax
	cmpb	$80, %al
	je	.L13
	movl	-4(%rbp), %eax
	movslq	%eax, %rdx
	movq	-32(%rbp), %rax
	addq	%rdx, %rax
	movzbl	(%rax), %eax
	cmpb	$82, %al
	je	.L13
	movl	-4(%rbp), %eax
	movslq	%eax, %rdx
	movq	-32(%rbp), %rax
	addq	%rdx, %rax
	movzbl	(%rax), %eax
	cmpb	$83, %al
	je	.L13
	movl	-4(%rbp), %eax
	movslq	%eax, %rdx
	movq	-32(%rbp), %rax
	addq	%rdx, %rax
	movzbl	(%rax), %eax
	cmpb	$84, %al
	je	.L13
	movl	-4(%rbp), %eax
	movslq	%eax, %rdx
	movq	-32(%rbp), %rax
	addq	%rdx, %rax
	movzbl	(%rax), %eax
	cmpb	$86, %al
	je	.L13
	movl	-4(%rbp), %eax
	movslq	%eax, %rdx
	movq	-32(%rbp), %rax
	addq	%rdx, %rax
	movzbl	(%rax), %eax
	cmpb	$87, %al
	je	.L13
	movl	-4(%rbp), %eax
	movslq	%eax, %rdx
	movq	-32(%rbp), %rax
	addq	%rdx, %rax
	movzbl	(%rax), %eax
	cmpb	$88, %al
	je	.L13
	movl	-4(%rbp), %eax
	movslq	%eax, %rdx
	movq	-32(%rbp), %rax
	addq	%rdx, %rax
	movzbl	(%rax), %eax
	cmpb	$90, %al
	je	.L13
	movl	-4(%rbp), %eax
	movslq	%eax, %rdx
	movq	-32(%rbp), %rax
	addq	%rdx, %rax
	movzbl	(%rax), %eax
	cmpb	$98, %al
	je	.L13
	movl	-4(%rbp), %eax
	movslq	%eax, %rdx
	movq	-32(%rbp), %rax
	addq	%rdx, %rax
	movzbl	(%rax), %eax
	cmpb	$99, %al
	je	.L13
	movl	-4(%rbp), %eax
	movslq	%eax, %rdx
	movq	-32(%rbp), %rax
	addq	%rdx, %rax
	movzbl	(%rax), %eax
	cmpb	$100, %al
	je	.L13
	movl	-4(%rbp), %eax
	movslq	%eax, %rdx
	movq	-32(%rbp), %rax
	addq	%rdx, %rax
	movzbl	(%rax), %eax
	cmpb	$102, %al
	je	.L13
	movl	-4(%rbp), %eax
	movslq	%eax, %rdx
	movq	-32(%rbp), %rax
	addq	%rdx, %rax
	movzbl	(%rax), %eax
	cmpb	$103, %al
	je	.L13
	movl	-4(%rbp), %eax
	movslq	%eax, %rdx
	movq	-32(%rbp), %rax
	addq	%rdx, %rax
	movzbl	(%rax), %eax
	cmpb	$104, %al
	je	.L13
	movl	-4(%rbp), %eax
	movslq	%eax, %rdx
	movq	-32(%rbp), %rax
	addq	%rdx, %rax
	movzbl	(%rax), %eax
	cmpb	$106, %al
	je	.L13
	movl	-4(%rbp), %eax
	movslq	%eax, %rdx
	movq	-32(%rbp), %rax
	addq	%rdx, %rax
	movzbl	(%rax), %eax
	cmpb	$107, %al
	je	.L13
	movl	-4(%rbp), %eax
	movslq	%eax, %rdx
	movq	-32(%rbp), %rax
	addq	%rdx, %rax
	movzbl	(%rax), %eax
	cmpb	$108, %al
	je	.L13
	movl	-4(%rbp), %eax
	movslq	%eax, %rdx
	movq	-32(%rbp), %rax
	addq	%rdx, %rax
	movzbl	(%rax), %eax
	cmpb	$109, %al
	je	.L13
	movl	-4(%rbp), %eax
	movslq	%eax, %rdx
	movq	-32(%rbp), %rax
	addq	%rdx, %rax
	movzbl	(%rax), %eax
	cmpb	$110, %al
	je	.L13
	movl	-4(%rbp), %eax
	movslq	%eax, %rdx
	movq	-32(%rbp), %rax
	addq	%rdx, %rax
	movzbl	(%rax), %eax
	cmpb	$112, %al
	je	.L13
	movl	-4(%rbp), %eax
	movslq	%eax, %rdx
	movq	-32(%rbp), %rax
	addq	%rdx, %rax
	movzbl	(%rax), %eax
	cmpb	$114, %al
	je	.L13
	movl	-4(%rbp), %eax
	movslq	%eax, %rdx
	movq	-32(%rbp), %rax
	addq	%rdx, %rax
	movzbl	(%rax), %eax
	cmpb	$115, %al
	je	.L13
	movl	-4(%rbp), %eax
	movslq	%eax, %rdx
	movq	-32(%rbp), %rax
	addq	%rdx, %rax
	movzbl	(%rax), %eax
	cmpb	$116, %al
	je	.L13
	movl	-4(%rbp), %eax
	movslq	%eax, %rdx
	movq	-32(%rbp), %rax
	addq	%rdx, %rax
	movzbl	(%rax), %eax
	cmpb	$118, %al
	je	.L13
	movl	-4(%rbp), %eax
	movslq	%eax, %rdx
	movq	-32(%rbp), %rax
	addq	%rdx, %rax
	movzbl	(%rax), %eax
	cmpb	$119, %al
	je	.L13
	movl	-4(%rbp), %eax
	movslq	%eax, %rdx
	movq	-32(%rbp), %rax
	addq	%rdx, %rax
	movzbl	(%rax), %eax
	cmpb	$120, %al
	je	.L13
	movl	-4(%rbp), %eax
	movslq	%eax, %rdx
	movq	-32(%rbp), %rax
	addq	%rdx, %rax
	movzbl	(%rax), %eax
	cmpb	$122, %al
	jne	.L14
.L13:
	movl	-4(%rbp), %eax
	movslq	%eax, %rdx
	movq	-32(%rbp), %rax
	addq	%rdx, %rax
	movzbl	(%rax), %eax
	movsbl	%al, %edx
	movq	-24(%rbp), %rax
	leaq	.LC0(%rip), %rsi
	movq	%rax, %rdi
	movl	$0, %eax
	call	fprintf@PLT
	jmp	.L15
.L14:
	movl	-4(%rbp), %eax
	movslq	%eax, %rdx
	movq	-32(%rbp), %rax
	addq	%rdx, %rax
	movzbl	(%rax), %eax
	movsbl	%al, %eax
	movq	-24(%rbp), %rdx
	movq	%rdx, %rsi
	movl	%eax, %edi
	call	fputc@PLT
.L15:
	addl	$1, -4(%rbp)
.L12:
	movl	-4(%rbp), %eax
	cmpl	-36(%rbp), %eax
	jl	.L16
	nop
	leave
	.cfi_def_cfa 7, 8
	ret
	.cfi_endproc
.LFE7:
	.size	task, .-task
	.globl	task2
	.type	task2, @function
task2:
.LFB8:
	.cfi_startproc
	pushq	%rbp
	.cfi_def_cfa_offset 16
	.cfi_offset 6, -16
	movq	%rsp, %rbp
	.cfi_def_cfa_register 6
	subq	$32, %rsp
	movq	%rdi, -24(%rbp)
	movl	%esi, -28(%rbp)
	movl	$0, -8(%rbp)
	jmp	.L18
.L24:
	movl	$0, -4(%rbp)
	jmp	.L19
.L23:
	cmpl	$100000, -8(%rbp)
	jne	.L20
	movl	-4(%rbp), %eax
	movslq	%eax, %rdx
	movq	-24(%rbp), %rax
	addq	%rdx, %rax
	movzbl	(%rax), %eax
	cmpb	$66, %al
	je	.L21
	movl	-4(%rbp), %eax
	movslq	%eax, %rdx
	movq	-24(%rbp), %rax
	addq	%rdx, %rax
	movzbl	(%rax), %eax
	cmpb	$67, %al
	je	.L21
	movl	-4(%rbp), %eax
	movslq	%eax, %rdx
	movq	-24(%rbp), %rax
	addq	%rdx, %rax
	movzbl	(%rax), %eax
	cmpb	$68, %al
	je	.L21
	movl	-4(%rbp), %eax
	movslq	%eax, %rdx
	movq	-24(%rbp), %rax
	addq	%rdx, %rax
	movzbl	(%rax), %eax
	cmpb	$70, %al
	je	.L21
	movl	-4(%rbp), %eax
	movslq	%eax, %rdx
	movq	-24(%rbp), %rax
	addq	%rdx, %rax
	movzbl	(%rax), %eax
	cmpb	$71, %al
	je	.L21
	movl	-4(%rbp), %eax
	movslq	%eax, %rdx
	movq	-24(%rbp), %rax
	addq	%rdx, %rax
	movzbl	(%rax), %eax
	cmpb	$72, %al
	je	.L21
	movl	-4(%rbp), %eax
	movslq	%eax, %rdx
	movq	-24(%rbp), %rax
	addq	%rdx, %rax
	movzbl	(%rax), %eax
	cmpb	$74, %al
	je	.L21
	movl	-4(%rbp), %eax
	movslq	%eax, %rdx
	movq	-24(%rbp), %rax
	addq	%rdx, %rax
	movzbl	(%rax), %eax
	cmpb	$75, %al
	je	.L21
	movl	-4(%rbp), %eax
	movslq	%eax, %rdx
	movq	-24(%rbp), %rax
	addq	%rdx, %rax
	movzbl	(%rax), %eax
	cmpb	$76, %al
	je	.L21
	movl	-4(%rbp), %eax
	movslq	%eax, %rdx
	movq	-24(%rbp), %rax
	addq	%rdx, %rax
	movzbl	(%rax), %eax
	cmpb	$77, %al
	je	.L21
	movl	-4(%rbp), %eax
	movslq	%eax, %rdx
	movq	-24(%rbp), %rax
	addq	%rdx, %rax
	movzbl	(%rax), %eax
	cmpb	$78, %al
	je	.L21
	movl	-4(%rbp), %eax
	movslq	%eax, %rdx
	movq	-24(%rbp), %rax
	addq	%rdx, %rax
	movzbl	(%rax), %eax
	cmpb	$80, %al
	je	.L21
	movl	-4(%rbp), %eax
	movslq	%eax, %rdx
	movq	-24(%rbp), %rax
	addq	%rdx, %rax
	movzbl	(%rax), %eax
	cmpb	$82, %al
	je	.L21
	movl	-4(%rbp), %eax
	movslq	%eax, %rdx
	movq	-24(%rbp), %rax
	addq	%rdx, %rax
	movzbl	(%rax), %eax
	cmpb	$83, %al
	je	.L21
	movl	-4(%rbp), %eax
	movslq	%eax, %rdx
	movq	-24(%rbp), %rax
	addq	%rdx, %rax
	movzbl	(%rax), %eax
	cmpb	$84, %al
	je	.L21
	movl	-4(%rbp), %eax
	movslq	%eax, %rdx
	movq	-24(%rbp), %rax
	addq	%rdx, %rax
	movzbl	(%rax), %eax
	cmpb	$86, %al
	je	.L21
	movl	-4(%rbp), %eax
	movslq	%eax, %rdx
	movq	-24(%rbp), %rax
	addq	%rdx, %rax
	movzbl	(%rax), %eax
	cmpb	$87, %al
	je	.L21
	movl	-4(%rbp), %eax
	movslq	%eax, %rdx
	movq	-24(%rbp), %rax
	addq	%rdx, %rax
	movzbl	(%rax), %eax
	cmpb	$88, %al
	je	.L21
	movl	-4(%rbp), %eax
	movslq	%eax, %rdx
	movq	-24(%rbp), %rax
	addq	%rdx, %rax
	movzbl	(%rax), %eax
	cmpb	$90, %al
	je	.L21
	movl	-4(%rbp), %eax
	movslq	%eax, %rdx
	movq	-24(%rbp), %rax
	addq	%rdx, %rax
	movzbl	(%rax), %eax
	cmpb	$98, %al
	je	.L21
	movl	-4(%rbp), %eax
	movslq	%eax, %rdx
	movq	-24(%rbp), %rax
	addq	%rdx, %rax
	movzbl	(%rax), %eax
	cmpb	$99, %al
	je	.L21
	movl	-4(%rbp), %eax
	movslq	%eax, %rdx
	movq	-24(%rbp), %rax
	addq	%rdx, %rax
	movzbl	(%rax), %eax
	cmpb	$100, %al
	je	.L21
	movl	-4(%rbp), %eax
	movslq	%eax, %rdx
	movq	-24(%rbp), %rax
	addq	%rdx, %rax
	movzbl	(%rax), %eax
	cmpb	$102, %al
	je	.L21
	movl	-4(%rbp), %eax
	movslq	%eax, %rdx
	movq	-24(%rbp), %rax
	addq	%rdx, %rax
	movzbl	(%rax), %eax
	cmpb	$103, %al
	je	.L21
	movl	-4(%rbp), %eax
	movslq	%eax, %rdx
	movq	-24(%rbp), %rax
	addq	%rdx, %rax
	movzbl	(%rax), %eax
	cmpb	$104, %al
	je	.L21
	movl	-4(%rbp), %eax
	movslq	%eax, %rdx
	movq	-24(%rbp), %rax
	addq	%rdx, %rax
	movzbl	(%rax), %eax
	cmpb	$106, %al
	je	.L21
	movl	-4(%rbp), %eax
	movslq	%eax, %rdx
	movq	-24(%rbp), %rax
	addq	%rdx, %rax
	movzbl	(%rax), %eax
	cmpb	$107, %al
	je	.L21
	movl	-4(%rbp), %eax
	movslq	%eax, %rdx
	movq	-24(%rbp), %rax
	addq	%rdx, %rax
	movzbl	(%rax), %eax
	cmpb	$108, %al
	je	.L21
	movl	-4(%rbp), %eax
	movslq	%eax, %rdx
	movq	-24(%rbp), %rax
	addq	%rdx, %rax
	movzbl	(%rax), %eax
	cmpb	$109, %al
	je	.L21
	movl	-4(%rbp), %eax
	movslq	%eax, %rdx
	movq	-24(%rbp), %rax
	addq	%rdx, %rax
	movzbl	(%rax), %eax
	cmpb	$110, %al
	je	.L21
	movl	-4(%rbp), %eax
	movslq	%eax, %rdx
	movq	-24(%rbp), %rax
	addq	%rdx, %rax
	movzbl	(%rax), %eax
	cmpb	$112, %al
	je	.L21
	movl	-4(%rbp), %eax
	movslq	%eax, %rdx
	movq	-24(%rbp), %rax
	addq	%rdx, %rax
	movzbl	(%rax), %eax
	cmpb	$114, %al
	je	.L21
	movl	-4(%rbp), %eax
	movslq	%eax, %rdx
	movq	-24(%rbp), %rax
	addq	%rdx, %rax
	movzbl	(%rax), %eax
	cmpb	$115, %al
	je	.L21
	movl	-4(%rbp), %eax
	movslq	%eax, %rdx
	movq	-24(%rbp), %rax
	addq	%rdx, %rax
	movzbl	(%rax), %eax
	cmpb	$116, %al
	je	.L21
	movl	-4(%rbp), %eax
	movslq	%eax, %rdx
	movq	-24(%rbp), %rax
	addq	%rdx, %rax
	movzbl	(%rax), %eax
	cmpb	$118, %al
	je	.L21
	movl	-4(%rbp), %eax
	movslq	%eax, %rdx
	movq	-24(%rbp), %rax
	addq	%rdx, %rax
	movzbl	(%rax), %eax
	cmpb	$119, %al
	je	.L21
	movl	-4(%rbp), %eax
	movslq	%eax, %rdx
	movq	-24(%rbp), %rax
	addq	%rdx, %rax
	movzbl	(%rax), %eax
	cmpb	$120, %al
	je	.L21
	movl	-4(%rbp), %eax
	movslq	%eax, %rdx
	movq	-24(%rbp), %rax
	addq	%rdx, %rax
	movzbl	(%rax), %eax
	cmpb	$122, %al
	jne	.L22
.L21:
	movl	-4(%rbp), %eax
	movslq	%eax, %rdx
	movq	-24(%rbp), %rax
	addq	%rdx, %rax
	movzbl	(%rax), %eax
	movsbl	%al, %eax
	movl	%eax, %esi
	leaq	.LC0(%rip), %rdi
	movl	$0, %eax
	call	printf@PLT
	jmp	.L20
.L22:
	movl	-4(%rbp), %eax
	movslq	%eax, %rdx
	movq	-24(%rbp), %rax
	addq	%rdx, %rax
	movzbl	(%rax), %eax
	movsbl	%al, %eax
	movl	%eax, %edi
	call	putchar@PLT
.L20:
	addl	$1, -4(%rbp)
.L19:
	movl	-4(%rbp), %eax
	cmpl	-28(%rbp), %eax
	jl	.L23
	addl	$1, -8(%rbp)
.L18:
	cmpl	$100000, -8(%rbp)
	jle	.L24
	nop
	leave
	.cfi_def_cfa 7, 8
	ret
	.cfi_endproc
.LFE8:
	.size	task2, .-task2
	.globl	get_random_string
	.type	get_random_string, @function
get_random_string:
.LFB9:
	.cfi_startproc
	pushq	%rbp
	.cfi_def_cfa_offset 16
	.cfi_offset 6, -16
	movq	%rsp, %rbp
	.cfi_def_cfa_register 6
	subq	$32, %rsp
	movq	%rdi, -24(%rbp)
	movl	$0, %edi
	call	time@PLT
	movl	%eax, %edi
	call	srand@PLT
	call	rand@PLT
	movl	%eax, %ecx
	movl	$1759218605, %edx
	movl	%ecx, %eax
	imull	%edx
	sarl	$12, %edx
	movl	%ecx, %eax
	sarl	$31, %eax
	subl	%eax, %edx
	movl	%edx, %eax
	imull	$10000, %eax, %eax
	subl	%eax, %ecx
	movl	%ecx, %eax
	movq	-24(%rbp), %rdx
	movl	%eax, (%rdx)
	movq	-24(%rbp), %rax
	movl	(%rax), %eax
	cltq
	movq	%rax, %rdi
	call	malloc@PLT
	movq	%rax, -8(%rbp)
	movl	$0, -12(%rbp)
	jmp	.L26
.L29:
	movl	-12(%rbp), %eax
	andl	$1, %eax
	testl	%eax, %eax
	jne	.L27
	call	rand@PLT
	movl	%eax, %ecx
	movl	$1321528399, %edx
	movl	%ecx, %eax
	imull	%edx
	sarl	$3, %edx
	movl	%ecx, %eax
	sarl	$31, %eax
	subl	%eax, %edx
	movl	%edx, %eax
	imull	$26, %eax, %eax
	subl	%eax, %ecx
	movl	%ecx, %eax
	leal	65(%rax), %ecx
	movl	-12(%rbp), %eax
	movslq	%eax, %rdx
	movq	-8(%rbp), %rax
	addq	%rdx, %rax
	movl	%ecx, %edx
	movb	%dl, (%rax)
	jmp	.L28
.L27:
	call	rand@PLT
	movl	%eax, %ecx
	movl	$1321528399, %edx
	movl	%ecx, %eax
	imull	%edx
	sarl	$3, %edx
	movl	%ecx, %eax
	sarl	$31, %eax
	subl	%eax, %edx
	movl	%edx, %eax
	imull	$26, %eax, %eax
	subl	%eax, %ecx
	movl	%ecx, %eax
	leal	97(%rax), %ecx
	movl	-12(%rbp), %eax
	movslq	%eax, %rdx
	movq	-8(%rbp), %rax
	addq	%rdx, %rax
	movl	%ecx, %edx
	movb	%dl, (%rax)
.L28:
	addl	$1, -12(%rbp)
.L26:
	movq	-24(%rbp), %rax
	movl	(%rax), %eax
	cmpl	%eax, -12(%rbp)
	jl	.L29
	movq	-8(%rbp), %rax
	leave
	.cfi_def_cfa 7, 8
	ret
	.cfi_endproc
.LFE9:
	.size	get_random_string, .-get_random_string
	.section	.rodata
.LC1:
	.string	"incorrect input"
.LC2:
	.string	"-r"
.LC3:
	.string	"%s \n %d \n"
.LC5:
	.string	"\n%d\ntime: %.6lf\n"
.LC6:
	.string	"-h"
.LC7:
	.string	"-h help"
.LC8:
	.string	"-r create random string"
	.align 8
.LC9:
	.string	"-f use string from input.txt and save result in output.txt"
	.align 8
.LC10:
	.string	"-s take string from terminal and print result in terminal"
.LC11:
	.string	"-f"
.LC12:
	.string	"r"
.LC13:
	.string	"input.txt"
.LC14:
	.string	"w"
.LC15:
	.string	"output.txt"
.LC16:
	.string	"incorrect file"
.LC17:
	.string	"\ntime: %.6lf\n"
.LC18:
	.string	"-s"
	.text
	.globl	main
	.type	main, @function
main:
.LFB10:
	.cfi_startproc
	pushq	%rbp
	.cfi_def_cfa_offset 16
	.cfi_offset 6, -16
	movq	%rsp, %rbp
	.cfi_def_cfa_register 6
	subq	$96, %rsp
	movl	%edi, -84(%rbp)
	movq	%rsi, -96(%rbp)
	movq	%fs:40, %rax
	movq	%rax, -8(%rbp)
	xorl	%eax, %eax
	cmpl	$2, -84(%rbp)
	je	.L32
	leaq	.LC1(%rip), %rdi
	call	puts@PLT
	movl	$0, %eax
	jmp	.L40
.L32:
	movq	-96(%rbp), %rax
	addq	$8, %rax
	movq	(%rax), %rax
	leaq	.LC2(%rip), %rsi
	movq	%rax, %rdi
	call	strcmp@PLT
	testl	%eax, %eax
	jne	.L34
	leaq	-68(%rbp), %rax
	movq	%rax, %rdi
	call	get_random_string
	movq	%rax, -16(%rbp)
	movl	-68(%rbp), %edx
	movq	-16(%rbp), %rax
	movq	%rax, %rsi
	leaq	.LC3(%rip), %rdi
	movl	$0, %eax
	call	printf@PLT
	call	clock@PLT
	movq	%rax, -56(%rbp)
	movl	-68(%rbp), %edx
	movq	-16(%rbp), %rax
	movl	%edx, %esi
	movq	%rax, %rdi
	call	task2
	call	clock@PLT
	movq	%rax, -48(%rbp)
	movq	-48(%rbp), %rax
	subq	-56(%rbp), %rax
	cvtsi2sdq	%rax, %xmm0
	movsd	.LC4(%rip), %xmm1
	divsd	%xmm1, %xmm0
	movl	-68(%rbp), %eax
	movl	%eax, %esi
	leaq	.LC5(%rip), %rdi
	movl	$1, %eax
	call	printf@PLT
	movq	-16(%rbp), %rax
	movq	%rax, %rdi
	call	free@PLT
	jmp	.L35
.L34:
	movq	-96(%rbp), %rax
	addq	$8, %rax
	movq	(%rax), %rax
	leaq	.LC6(%rip), %rsi
	movq	%rax, %rdi
	call	strcmp@PLT
	testl	%eax, %eax
	jne	.L36
	leaq	.LC7(%rip), %rdi
	call	puts@PLT
	leaq	.LC8(%rip), %rdi
	call	puts@PLT
	leaq	.LC9(%rip), %rdi
	call	puts@PLT
	leaq	.LC10(%rip), %rdi
	call	puts@PLT
	jmp	.L35
.L36:
	movq	-96(%rbp), %rax
	addq	$8, %rax
	movq	(%rax), %rax
	leaq	.LC11(%rip), %rsi
	movq	%rax, %rdi
	call	strcmp@PLT
	testl	%eax, %eax
	jne	.L37
	leaq	.LC12(%rip), %rsi
	leaq	.LC13(%rip), %rdi
	call	fopen@PLT
	movq	%rax, -40(%rbp)
	leaq	.LC14(%rip), %rsi
	leaq	.LC15(%rip), %rdi
	call	fopen@PLT
	movq	%rax, -32(%rbp)
	cmpq	$0, -40(%rbp)
	je	.L38
	cmpq	$0, -32(%rbp)
	jne	.L39
.L38:
	leaq	.LC16(%rip), %rdi
	call	puts@PLT
	movl	$0, %eax
	jmp	.L40
.L39:
	leaq	-72(%rbp), %rdx
	leaq	-68(%rbp), %rcx
	movq	-40(%rbp), %rax
	movq	%rcx, %rsi
	movq	%rax, %rdi
	call	get_string
	movq	%rax, -24(%rbp)
	call	clock@PLT
	movq	%rax, -56(%rbp)
	movl	-68(%rbp), %edx
	movq	-24(%rbp), %rcx
	movq	-32(%rbp), %rax
	movq	%rcx, %rsi
	movq	%rax, %rdi
	call	task
	call	clock@PLT
	movq	%rax, -48(%rbp)
	movq	-48(%rbp), %rax
	subq	-56(%rbp), %rax
	cvtsi2sdq	%rax, %xmm0
	movsd	.LC4(%rip), %xmm1
	divsd	%xmm1, %xmm0
	leaq	.LC17(%rip), %rdi
	movl	$1, %eax
	call	printf@PLT
	movq	-24(%rbp), %rax
	movq	%rax, %rdi
	call	free@PLT
	movq	-40(%rbp), %rax
	movq	%rax, %rdi
	call	fclose@PLT
	movq	-32(%rbp), %rax
	movq	%rax, %rdi
	call	fclose@PLT
	jmp	.L35
.L37:
	movq	-96(%rbp), %rax
	addq	$8, %rax
	movq	(%rax), %rax
	leaq	.LC18(%rip), %rsi
	movq	%rax, %rdi
	call	strcmp@PLT
	testl	%eax, %eax
	jne	.L35
	leaq	-72(%rbp), %rdx
	leaq	-68(%rbp), %rax
	movq	%rdx, %rsi
	movq	%rax, %rdi
	call	get_string2
	movq	%rax, -64(%rbp)
	call	clock@PLT
	movq	%rax, -56(%rbp)
	movl	-68(%rbp), %edx
	movq	-64(%rbp), %rax
	movl	%edx, %esi
	movq	%rax, %rdi
	call	task2
	call	clock@PLT
	movq	%rax, -48(%rbp)
	movq	-48(%rbp), %rax
	subq	-56(%rbp), %rax
	cvtsi2sdq	%rax, %xmm0
	movsd	.LC4(%rip), %xmm1
	divsd	%xmm1, %xmm0
	leaq	.LC17(%rip), %rdi
	movl	$1, %eax
	call	printf@PLT
	movq	-64(%rbp), %rax
	movq	%rax, %rdi
	call	free@PLT
.L35:
	movl	$0, %eax
.L40:
	movq	-8(%rbp), %rcx
	xorq	%fs:40, %rcx
	je	.L41
	call	__stack_chk_fail@PLT
.L41:
	leave
	.cfi_def_cfa 7, 8
	ret
	.cfi_endproc
.LFE10:
	.size	main, .-main
	.section	.rodata
	.align 8
.LC4:
	.long	0
	.long	1093567616
	.ident	"GCC: (Ubuntu 7.5.0-3ubuntu1~18.04) 7.5.0"
	.section	.note.GNU-stack,"",@progbits
